; Function Attrs: mustprogress uwtable
define hidden noundef zeroext i1 @_ZN3dpx17RunLengthEncoding4ReadERKNS_6HeaderEPNS_17ElementReadStreamEiRKNS_5BlockEPvNS_8DataSizeE(ptr nocapture noundef nonnull align 8 dereferenceable(24) %this, ptr noundef nonnull align 4 dereferenceable(2049) %dpxHeader, ptr noundef %fd, i32 noundef %element, ptr nocapture nonnull readnone align 4 %block, ptr nocapture readnone %data, i32 noundef %size) unnamed_addr #4 align 2 {
entry:
  %or.cond.i = icmp ugt i32 %element, 7
  br i1 %or.cond.i, label %return, label %_ZNK3dpx13GenericHeader13ImageEncodingEi.exit

_ZNK3dpx13GenericHeader13ImageEncodingEi.exit:    ; preds = %entry
  %chan.i = getelementptr inbounds i8, ptr %dpxHeader, i64 780
  %idxprom.i = zext nneg i32 %element to i64
  %encoding.i = getelementptr inbounds [8 x %"struct.dpx::ImageElement"], ptr %chan.i, i64 0, i64 %idxprom.i, i32 10
  %0 = load i16, ptr %encoding.i, align 2
  %cmp3.i = icmp eq i16 %0, 1
  br i1 %cmp3.i, label %_ZNK3dpx13GenericHeader16EndOfLinePaddingEi.exit, label %return

_ZNK3dpx13GenericHeader16EndOfLinePaddingEi.exit: ; preds = %_ZNK3dpx13GenericHeader13ImageEncodingEi.exit
  %call2 = tail call noundef i32 @_ZNK3dpx13GenericHeader26ImageElementComponentCountEi(ptr noundef nonnull align 4 dereferenceable(1664) %dpxHeader, i32 noundef %element)
  %call3 = tail call noundef i32 @_ZNK3dpx6Header5WidthEv(ptr noundef nonnull align 4 dereferenceable(2049) %dpxHeader)
  %call4 = tail call noundef i32 @_ZNK3dpx6Header6HeightEv(ptr noundef nonnull align 4 dereferenceable(2049) %dpxHeader)
  %call5 = tail call noundef i32 @_ZNK3dpx13GenericHeader18ComponentByteCountEi(ptr noundef nonnull align 4 dereferenceable(1664) %dpxHeader, i32 noundef %element)
  %endOfLinePadding.i = getelementptr inbounds [8 x %"struct.dpx::ImageElement"], ptr %chan.i, i64 0, i64 %idxprom.i, i32 12
  %1 = load i32, ptr %endOfLinePadding.i, align 4
  %cmp3.i47 = icmp eq i32 %1, -1
  %..i = select i1 %cmp3.i47, i32 0, i32 %1
  %buf = getelementptr inbounds i8, ptr %this, i64 16
  %2 = load ptr, ptr %buf, align 8
  %cmp7 = icmp eq ptr %2, null
  br i1 %cmp7, label %_ZNK3dpx13GenericHeader8BitDepthEi.exit, label %return

_ZNK3dpx13GenericHeader8BitDepthEi.exit:          ; preds = %_ZNK3dpx13GenericHeader16EndOfLinePaddingEi.exit
  %bitDepth.i = getelementptr inbounds [8 x %"struct.dpx::ImageElement"], ptr %chan.i, i64 0, i64 %idxprom.i, i32 8
  %3 = load i8, ptr %bitDepth.i, align 1
  %cmp13.not = icmp eq i32 %..i, 0
  br i1 %cmp13.not, label %if.else, label %switch.early.test

switch.early.test:                                ; preds = %_ZNK3dpx13GenericHeader8BitDepthEi.exit
  switch i8 %3, label %return [
    i8 16, label %if.else
    i8 8, label %if.else
  ]

if.else:                                          ; preds = %switch.early.test, %switch.early.test, %_ZNK3dpx13GenericHeader8BitDepthEi.exit
  %cmp15 = icmp eq i8 %3, 16
  %4 = and i32 %..i, -3
  %5 = icmp ne i32 %4, 0
  %or.cond3 = and i1 %5, %cmp15
  %6 = add i32 %size, -3
  %or.cond4 = icmp ult i32 %6, 2
  %or.cond42 = or i1 %or.cond4, %or.cond3
  br i1 %or.cond42, label %return, label %_ZNK3dpx13GenericHeader10DataOffsetEi.exit

_ZNK3dpx13GenericHeader10DataOffsetEi.exit:       ; preds = %if.else
  %conv43 = sext i32 %call3 to i64
  %conv44 = sext i32 %call4 to i64
  %conv45 = sext i32 %call2 to i64
  %conv47 = sext i32 %call5 to i64
  %mul = mul nsw i64 %conv43, %conv45
  %mul46 = mul i64 %mul, %conv44
  %mul48 = mul i64 %mul46, %conv47
  %call49 = tail call noalias noundef nonnull ptr @_Znam(i64 noundef %mul48) #10
  store ptr %call49, ptr %buf, align 8
  %call51 = tail call noalias noundef nonnull dereferenceable(53440) ptr @_Znam(i64 noundef 53440) #10
  %vtable = load ptr, ptr %fd, align 8
  %vfn = getelementptr inbounds i8, ptr %vtable, i64 32
  %7 = load ptr, ptr %vfn, align 8
  %call54 = tail call noundef zeroext i1 %7(ptr noundef nonnull align 8 dereferenceable(16) %fd, ptr noundef nonnull align 4 dereferenceable(2049) %dpxHeader, i32 noundef %element, i64 noundef 0, ptr noundef nonnull %call51, i64 noundef 40080)
  tail call void @_ZdaPv(ptr noundef nonnull %call51) #8
  br label %return

return:                                           ; preds = %entry, %_ZNK3dpx13GenericHeader16EndOfLinePaddingEi.exit, %_ZNK3dpx13GenericHeader10DataOffsetEi.exit, %if.else, %switch.early.test, %_ZNK3dpx13GenericHeader13ImageEncodingEi.exit
  %retval.0 = phi i1 [ false, %_ZNK3dpx13GenericHeader13ImageEncodingEi.exit ], [ false, %switch.early.test ], [ false, %if.else ], [ true, %_ZNK3dpx13GenericHeader10DataOffsetEi.exit ], [ true, %_ZNK3dpx13GenericHeader16EndOfLinePaddingEi.exit ], [ false, %entry ]
  ret i1 %retval.0
}